target datalayout = "e-m:e-p270:32:32-p271:32:32-p272:64:64-i64:64-i128:128-f80:128-n8:16:32:64-S128"
target triple = "x86_64-pc-linux-gnu"

%"class.std::__shared_count" = type { ptr }
%"class.cv::Mat" = type { i32, i32, i32, i32, ptr, ptr, ptr, ptr, ptr, ptr, %"struct.cv::MatSize", %"struct.cv::MatStep" }
%"struct.cv::MatSize" = type { ptr }
%"struct.cv::MatStep" = type { ptr, [2 x i64] }
%"class.cv::Vec" = type { %"class.cv::Matx" }
%"class.cv::Matx" = type { [3 x i8] }
%"class.cv::hfs::orutils::Vector4" = type { %"struct.cv::hfs::orutils::Vector4_" }
%"struct.cv::hfs::orutils::Vector4_" = type { i8, i8, i8, i8 }
%"class.cv::hfs::orutils::MemoryBlock" = type { ptr, ptr, i64 }
%"class.std::__shared_ptr.10" = type { ptr, %"class.std::__shared_count" }

; Function Attrs: mustprogress nounwind uwtable
define linkonce_odr hidden noundef ptr @_ZNKSt12__shared_ptrIN2cv3hfs7orutils5ImageINS2_7Vector4IhEEEELN9__gnu_cxx12_Lock_policyE2EE3getEv(ptr noundef nonnull align 8 dereferenceable(16) %0) #5 comdat align 2 {
  %2 = alloca ptr, align 8
  store ptr %0, ptr %2, align 8, !tbaa !362
  %3 = load ptr, ptr %2, align 8
  %4 = getelementptr inbounds nuw %"class.std::__shared_ptr.10", ptr %3, i32 0, i32 0
  %5 = load ptr, ptr %4, align 8, !tbaa !364
  ret ptr %5
}

; Function Attrs: inlinehint mustprogress nounwind uwtable
define linkonce_odr hidden noundef nonnull align 1 dereferenceable(1) ptr @_ZNK2cv3VecIhLi3EEixEi(ptr noundef nonnull align 1 dereferenceable(3) %0, i32 noundef %1) #1 comdat align 2 {
  %3 = alloca ptr, align 8
  %4 = alloca i32, align 4
  store ptr %0, ptr %3, align 8, !tbaa !70
  store i32 %1, ptr %4, align 4, !tbaa !8
  %5 = load ptr, ptr %3, align 8
  %6 = getelementptr inbounds nuw %"class.cv::Matx", ptr %5, i32 0, i32 0
  %7 = load i32, ptr %4, align 4, !tbaa !8
  %8 = sext i32 %7 to i64
  %9 = getelementptr inbounds [3 x i8], ptr %6, i64 0, i64 %8
  ret ptr %9
}

; Function Attrs: inlinehint mustprogress nounwind uwtable
define linkonce_odr hidden noundef ptr @_ZNK2cv3Mat3ptrINS_3VecIhLi3EEEEEPKT_i(ptr noundef nonnull align 8 dereferenceable(96) %0, i32 noundef %1) #1 comdat align 2 {
  %3 = alloca ptr, align 8
  %4 = alloca i32, align 4
  store ptr %0, ptr %3, align 8, !tbaa !55
  store i32 %1, ptr %4, align 4, !tbaa !8
  %5 = load ptr, ptr %3, align 8
  %6 = getelementptr inbounds nuw %"class.cv::Mat", ptr %5, i32 0, i32 4
  %7 = load ptr, ptr %6, align 8, !tbaa !85
  %8 = getelementptr inbounds nuw %"class.cv::Mat", ptr %5, i32 0, i32 11
  %9 = getelementptr inbounds nuw %"struct.cv::MatStep", ptr %8, i32 0, i32 0
  %10 = load ptr, ptr %9, align 8, !tbaa !86
  %11 = getelementptr inbounds i64, ptr %10, i64 0
  %12 = load i64, ptr %11, align 8, !tbaa !48
  %13 = load i32, ptr %4, align 4, !tbaa !8
  %14 = sext i32 %13 to i64
  %15 = mul i64 %12, %14
  %16 = getelementptr inbounds nuw i8, ptr %7, i64 %15
  ret ptr %16
}

; Function Attrs: inlinehint mustprogress nounwind uwtable
define linkonce_odr hidden noundef ptr @_ZN2cv3hfs7orutils11MemoryBlockINS1_7Vector4IhEEE10getCpuDataEv(ptr noundef nonnull align 8 dereferenceable(24) %0) #1 comdat align 2 {
  %2 = alloca ptr, align 8
  store ptr %0, ptr %2, align 8, !tbaa !81
  %3 = load ptr, ptr %2, align 8
  %4 = getelementptr inbounds nuw %"class.cv::hfs::orutils::MemoryBlock", ptr %3, i32 0, i32 1
  %5 = load ptr, ptr %4, align 8, !tbaa !83
  ret ptr %5
}

; Function Attrs: mustprogress nounwind uwtable
define linkonce_odr hidden noundef ptr @_ZNK2cv3PtrINS_3hfs7orutils5ImageINS2_7Vector4IhEEEEEptEv(ptr noundef nonnull align 8 dereferenceable(16) %0) #5 comdat align 2 {
  %2 = alloca ptr, align 8
  store ptr %0, ptr %2, align 8, !tbaa !57
  %3 = load ptr, ptr %2, align 8
  %4 = call noundef ptr @_ZNKSt12__shared_ptrIN2cv3hfs7orutils5ImageINS2_7Vector4IhEEEELN9__gnu_cxx12_Lock_policyE2EE3getEv(ptr noundef nonnull align 8 dereferenceable(16) %3) #22
  ret ptr %4
}

; Function Attrs: mustprogress uwtable
define hidden void @_ZN2cv3hfs7HfsCore9loadImageERKNS_3MatENS_3PtrINS0_7orutils5ImageINS6_7Vector4IhEEEEEE(ptr noundef nonnull align 8 dereferenceable(104) %0, ptr noundef nonnull align 8 dereferenceable(96) %1, ptr noundef %2) #3 align 2 {
  %4 = alloca ptr, align 8
  %5 = alloca ptr, align 8
  %6 = alloca ptr, align 8
  %7 = alloca ptr, align 8
  %8 = alloca i32, align 4
  %9 = alloca i32, align 4
  %10 = alloca ptr, align 8
  %11 = alloca i32, align 4
  %12 = alloca i32, align 4
  store ptr %0, ptr %4, align 8, !tbaa !13
  store ptr %1, ptr %5, align 8, !tbaa !55
  store ptr %2, ptr %6, align 8, !tbaa !57
  call void @llvm.lifetime.start.p0(i64 8, ptr %7) #22
  %13 = call noundef ptr @_ZNK2cv3PtrINS_3hfs7orutils5ImageINS2_7Vector4IhEEEEEptEv(ptr noundef nonnull align 8 dereferenceable(16) %2) #22
  %14 = call noundef ptr @_ZN2cv3hfs7orutils11MemoryBlockINS1_7Vector4IhEEE10getCpuDataEv(ptr noundef nonnull align 8 dereferenceable(24) %13)
  store ptr %14, ptr %7, align 8, !tbaa !59
  call void @llvm.lifetime.start.p0(i64 4, ptr %8) #22
  store i32 0, ptr %8, align 4, !tbaa !8
  br label %15

15:                                               ; preds = %78, %3
  %16 = load i32, ptr %8, align 4, !tbaa !8
  %17 = load ptr, ptr %5, align 8, !tbaa !55
  %18 = getelementptr inbounds nuw %"class.cv::Mat", ptr %17, i32 0, i32 2
  %19 = load i32, ptr %18, align 8, !tbaa !61
  %20 = icmp slt i32 %16, %19
  br i1 %20, label %22, label %21

21:                                               ; preds = %15
  store i32 2, ptr %9, align 4
  call void @llvm.lifetime.end.p0(i64 4, ptr %8) #22
  br label %81

22:                                               ; preds = %15
  call void @llvm.lifetime.start.p0(i64 8, ptr %10) #22
  %23 = load ptr, ptr %5, align 8, !tbaa !55
  %24 = load i32, ptr %8, align 4, !tbaa !8
  %25 = call noundef ptr @_ZNK2cv3Mat3ptrINS_3VecIhLi3EEEEEPKT_i(ptr noundef nonnull align 8 dereferenceable(96) %23, i32 noundef %24)
  store ptr %25, ptr %10, align 8, !tbaa !70
  call void @llvm.lifetime.start.p0(i64 4, ptr %11) #22
  store i32 0, ptr %11, align 4, !tbaa !8
  br label %26

26:                                               ; preds = %74, %22
  %27 = load i32, ptr %11, align 4, !tbaa !8
  %28 = load ptr, ptr %5, align 8, !tbaa !55
  %29 = getelementptr inbounds nuw %"class.cv::Mat", ptr %28, i32 0, i32 3
  %30 = load i32, ptr %29, align 4, !tbaa !72
  %31 = icmp slt i32 %27, %30
  br i1 %31, label %33, label %32

32:                                               ; preds = %26
  store i32 5, ptr %9, align 4
  call void @llvm.lifetime.end.p0(i64 4, ptr %11) #22
  br label %77

33:                                               ; preds = %26
  call void @llvm.lifetime.start.p0(i64 4, ptr %12) #22
  %34 = load i32, ptr %11, align 4, !tbaa !8
  %35 = load i32, ptr %8, align 4, !tbaa !8
  %36 = load ptr, ptr %5, align 8, !tbaa !55
  %37 = getelementptr inbounds nuw %"class.cv::Mat", ptr %36, i32 0, i32 3
  %38 = load i32, ptr %37, align 4, !tbaa !72
  %39 = mul nsw i32 %35, %38
  %40 = add nsw i32 %34, %39
  store i32 %40, ptr %12, align 4, !tbaa !8
  %41 = load ptr, ptr %10, align 8, !tbaa !70
  %42 = load i32, ptr %11, align 4, !tbaa !8
  %43 = sext i32 %42 to i64
  %44 = getelementptr inbounds %"class.cv::Vec", ptr %41, i64 %43
  %45 = call noundef nonnull align 1 dereferenceable(1) ptr @_ZNK2cv3VecIhLi3EEixEi(ptr noundef nonnull align 1 dereferenceable(3) %44, i32 noundef 0)
  %46 = load i8, ptr %45, align 1, !tbaa !73
  %47 = load ptr, ptr %7, align 8, !tbaa !59
  %48 = load i32, ptr %12, align 4, !tbaa !8
  %49 = sext i32 %48 to i64
  %50 = getelementptr inbounds %"class.cv::hfs::orutils::Vector4", ptr %47, i64 %49
  %51 = getelementptr inbounds nuw %"struct.cv::hfs::orutils::Vector4_", ptr %50, i32 0, i32 2
  store i8 %46, ptr %51, align 1, !tbaa !74
  %52 = load ptr, ptr %10, align 8, !tbaa !70
  %53 = load i32, ptr %11, align 4, !tbaa !8
  %54 = sext i32 %53 to i64
  %55 = getelementptr inbounds %"class.cv::Vec", ptr %52, i64 %54
  %56 = call noundef nonnull align 1 dereferenceable(1) ptr @_ZNK2cv3VecIhLi3EEixEi(ptr noundef nonnull align 1 dereferenceable(3) %55, i32 noundef 1)
  %57 = load i8, ptr %56, align 1, !tbaa !73
  %58 = load ptr, ptr %7, align 8, !tbaa !59
  %59 = load i32, ptr %12, align 4, !tbaa !8
  %60 = sext i32 %59 to i64
  %61 = getelementptr inbounds %"class.cv::hfs::orutils::Vector4", ptr %58, i64 %60
  %62 = getelementptr inbounds nuw %"struct.cv::hfs::orutils::Vector4_", ptr %61, i32 0, i32 1
  store i8 %57, ptr %62, align 1, !tbaa !76
  %63 = load ptr, ptr %10, align 8, !tbaa !70
  %64 = load i32, ptr %11, align 4, !tbaa !8
  %65 = sext i32 %64 to i64
  %66 = getelementptr inbounds %"class.cv::Vec", ptr %63, i64 %65
  %67 = call noundef nonnull align 1 dereferenceable(1) ptr @_ZNK2cv3VecIhLi3EEixEi(ptr noundef nonnull align 1 dereferenceable(3) %66, i32 noundef 2)
  %68 = load i8, ptr %67, align 1, !tbaa !73
  %69 = load ptr, ptr %7, align 8, !tbaa !59
  %70 = load i32, ptr %12, align 4, !tbaa !8
  %71 = sext i32 %70 to i64
  %72 = getelementptr inbounds %"class.cv::hfs::orutils::Vector4", ptr %69, i64 %71
  %73 = getelementptr inbounds nuw %"struct.cv::hfs::orutils::Vector4_", ptr %72, i32 0, i32 0
  store i8 %68, ptr %73, align 1, !tbaa !77
  call void @llvm.lifetime.end.p0(i64 4, ptr %12) #22
  br label %74

74:                                               ; preds = %33
  %75 = load i32, ptr %11, align 4, !tbaa !8
  %76 = add nsw i32 %75, 1
  store i32 %76, ptr %11, align 4, !tbaa !8
  br label %26, !llvm.loop !78

77:                                               ; preds = %32
  call void @llvm.lifetime.end.p0(i64 8, ptr %10) #22
  br label %78

78:                                               ; preds = %77
  %79 = load i32, ptr %8, align 4, !tbaa !8
  %80 = add nsw i32 %79, 1
  store i32 %80, ptr %8, align 4, !tbaa !8
  br label %15, !llvm.loop !80

81:                                               ; preds = %21
  call void @llvm.lifetime.end.p0(i64 8, ptr %7) #22
  ret void
}