; Function Attrs: mustprogress nofree norecurse nosync nounwind memory(readwrite, inaccessiblemem: none) uwtable
define hidden void @_ZN2cv3hfs7HfsCore9loadImageERKNS_3MatENS_3PtrINS0_7orutils5ImageINS6_7Vector4IhEEEEEE(ptr noundef nonnull readnone align 8 captures(none) dereferenceable(104) %0, ptr noundef nonnull readonly align 8 captures(none) dereferenceable(96) %1, ptr noundef readonly captures(none) %2) local_unnamed_addr #8 align 2 {
  %4 = load ptr, ptr %2, align 8, !tbaa !47
  %5 = getelementptr inbounds nuw i8, ptr %4, i64 8
  %6 = load ptr, ptr %5, align 8, !tbaa !50
  %7 = getelementptr inbounds nuw i8, ptr %1, i64 8
  %8 = load i32, ptr %7, align 8, !tbaa !54
  %9 = icmp sgt i32 %8, 0
  br i1 %9, label %.lr.ph27, label %._crit_edge28

.lr.ph27:                                         ; preds = %3
  %10 = getelementptr inbounds nuw i8, ptr %1, i64 16
  %11 = load ptr, ptr %10, align 8, !tbaa !63
  %12 = getelementptr inbounds nuw i8, ptr %1, i64 72
  %13 = load ptr, ptr %12, align 8, !tbaa !64
  %14 = load i64, ptr %13, align 8, !tbaa !65
  %15 = getelementptr inbounds nuw i8, ptr %1, i64 12
  %16 = load i32, ptr %15, align 4, !tbaa !66
  %17 = icmp sgt i32 %16, 0
  br i1 %17, label %.lr.ph.us.preheader, label %._crit_edge28

.lr.ph.us.preheader:                              ; preds = %.lr.ph27
  %18 = zext nneg i32 %16 to i64
  %wide.trip.count34 = zext nneg i32 %8 to i64
  br label %.lr.ph.us

.lr.ph.us:                                        ; preds = %.lr.ph.us.preheader, %._crit_edge.us
  %indvars.iv31 = phi i64 [ 0, %.lr.ph.us.preheader ], [ %indvars.iv.next32, %._crit_edge.us ]
  %19 = mul i64 %14, %indvars.iv31
  %20 = getelementptr inbounds nuw i8, ptr %11, i64 %19
  %21 = mul nuw nsw i64 %indvars.iv31, %18
  %22 = getelementptr inbounds nuw %"class.cv::hfs::orutils::Vector4", ptr %6, i64 %21
  br label %23

23:                                               ; preds = %.lr.ph.us, %23
  %indvars.iv = phi i64 [ 0, %.lr.ph.us ], [ %indvars.iv.next, %23 ]
  %24 = getelementptr inbounds nuw %"class.cv::Vec", ptr %20, i64 %indvars.iv
  %25 = load i8, ptr %24, align 1, !tbaa !44
  %26 = getelementptr inbounds nuw %"class.cv::hfs::orutils::Vector4", ptr %22, i64 %indvars.iv
  %27 = getelementptr inbounds nuw i8, ptr %26, i64 2
  store i8 %25, ptr %27, align 1, !tbaa !67
  %28 = getelementptr inbounds nuw i8, ptr %24, i64 1
  %29 = load i8, ptr %28, align 1, !tbaa !44
  %30 = getelementptr inbounds nuw i8, ptr %26, i64 1
  store i8 %29, ptr %30, align 1, !tbaa !69
  %31 = getelementptr inbounds nuw i8, ptr %24, i64 2
  %32 = load i8, ptr %31, align 1, !tbaa !44
  store i8 %32, ptr %26, align 1, !tbaa !70
  %indvars.iv.next = add nuw nsw i64 %indvars.iv, 1
  %exitcond.not = icmp eq i64 %indvars.iv.next, %18
  br i1 %exitcond.not, label %._crit_edge.us, label %23, !llvm.loop !71

._crit_edge.us:                                   ; preds = %23
  %indvars.iv.next32 = add nuw nsw i64 %indvars.iv31, 1
  %exitcond35.not = icmp eq i64 %indvars.iv.next32, %wide.trip.count34
  br i1 %exitcond35.not, label %._crit_edge28, label %.lr.ph.us, !llvm.loop !73

._crit_edge28:                                    ; preds = %._crit_edge.us, %.lr.ph27, %3
  ret void
}